; Function Attrs: mustprogress uwtable
define dso_local noundef i64 @_ZN4Luau4sizeERKNS_8TypePackEPNS_6TxnLogE(ptr noundef nonnull readonly align 8 captures(none) dereferenceable(40) %0, ptr noundef %1) local_unnamed_addr #2 {
  %3 = getelementptr inbounds nuw i8, ptr %0, i64 8
  %4 = load ptr, ptr %3, align 8, !tbaa !85
  %5 = load ptr, ptr %0, align 8, !tbaa !81
  %6 = ptrtoint ptr %4 to i64
  %7 = ptrtoint ptr %5 to i64
  %8 = sub i64 %6, %7
  %9 = ashr exact i64 %8, 3
  %10 = getelementptr inbounds nuw i8, ptr %0, i64 32
  %11 = load i8, ptr %10, align 8, !tbaa !72, !range !74, !noundef !75
  %12 = trunc nuw i8 %11 to i1
  br i1 %12, label %.lr.ph, label %_ZN4Luau3getINS_8TypePackEEEPKT_PKNS_11TypePackVarE.exit.thread

.lr.ph:                                           ; preds = %2
  %13 = getelementptr inbounds nuw i8, ptr %0, i64 24
  %.not = icmp eq ptr %1, null
  br i1 %.not, label %.lr.ph.split.us, label %.lr.ph.split

.lr.ph.split.us:                                  ; preds = %.lr.ph, %_ZN4Luau3getINS_8TypePackEEEPKT_PKNS_11TypePackVarE.exit.us
  %14 = phi ptr [ %30, %_ZN4Luau3getINS_8TypePackEEEPKT_PKNS_11TypePackVarE.exit.us ], [ %13, %.lr.ph ]
  %15 = phi i64 [ %29, %_ZN4Luau3getINS_8TypePackEEEPKT_PKNS_11TypePackVarE.exit.us ], [ %9, %.lr.ph ]
  %accumulator.tr15.us = phi i64 [ %22, %_ZN4Luau3getINS_8TypePackEEEPKT_PKNS_11TypePackVarE.exit.us ], [ 0, %.lr.ph ]
  %16 = load ptr, ptr %14, align 8, !tbaa !76
  %17 = tail call noundef ptr @_ZN4Luau6followEPKNS_11TypePackVarE(ptr noundef %16)
  %.not.i.i.us = icmp eq ptr %17, null
  br i1 %.not.i.i.us, label %_ZN4Luau3getINS_8TypePackEEEPKT_PKNS_11TypePackVarE.exit.thread, label %18

18:                                               ; preds = %.lr.ph.split.us
  %19 = load i32, ptr %17, align 8, !tbaa !49
  %20 = icmp eq i32 %19, 4
  br i1 %20, label %_ZN4Luau3getINS_8TypePackEEEPKT_PKNS_11TypePackVarE.exit.us, label %_ZN4Luau3getINS_8TypePackEEEPKT_PKNS_11TypePackVarE.exit.thread

_ZN4Luau3getINS_8TypePackEEEPKT_PKNS_11TypePackVarE.exit.us: ; preds = %18
  %21 = getelementptr inbounds nuw i8, ptr %17, i64 8
  %22 = add i64 %15, %accumulator.tr15.us
  %23 = getelementptr inbounds nuw i8, ptr %17, i64 16
  %24 = load ptr, ptr %23, align 8, !tbaa !85
  %25 = load ptr, ptr %21, align 8, !tbaa !81
  %26 = ptrtoint ptr %24 to i64
  %27 = ptrtoint ptr %25 to i64
  %28 = sub i64 %26, %27
  %29 = ashr exact i64 %28, 3
  %30 = getelementptr inbounds nuw i8, ptr %17, i64 32
  %31 = getelementptr inbounds nuw i8, ptr %17, i64 40
  %32 = load i8, ptr %31, align 8, !tbaa !72, !range !74, !noundef !75
  %33 = trunc nuw i8 %32 to i1
  br i1 %33, label %.lr.ph.split.us, label %_ZN4Luau3getINS_8TypePackEEEPKT_PKNS_11TypePackVarE.exit.thread

.lr.ph.split:                                     ; preds = %.lr.ph, %_ZN4Luau3getINS_8TypePackEEEPKT_PKNS_11TypePackVarE.exit
  %34 = phi ptr [ %50, %_ZN4Luau3getINS_8TypePackEEEPKT_PKNS_11TypePackVarE.exit ], [ %13, %.lr.ph ]
  %35 = phi i64 [ %49, %_ZN4Luau3getINS_8TypePackEEEPKT_PKNS_11TypePackVarE.exit ], [ %9, %.lr.ph ]
  %accumulator.tr15 = phi i64 [ %42, %_ZN4Luau3getINS_8TypePackEEEPKT_PKNS_11TypePackVarE.exit ], [ 0, %.lr.ph ]
  %36 = load ptr, ptr %34, align 8, !tbaa !76
  %37 = tail call noundef ptr @_ZNK4Luau6TxnLog6followEPKNS_11TypePackVarE(ptr noundef nonnull align 8 dereferenceable(128) %1, ptr noundef %36)
  %.not.i.i = icmp eq ptr %37, null
  br i1 %.not.i.i, label %_ZN4Luau3getINS_8TypePackEEEPKT_PKNS_11TypePackVarE.exit.thread, label %38

38:                                               ; preds = %.lr.ph.split
  %39 = load i32, ptr %37, align 8, !tbaa !49
  %40 = icmp eq i32 %39, 4
  br i1 %40, label %_ZN4Luau3getINS_8TypePackEEEPKT_PKNS_11TypePackVarE.exit, label %_ZN4Luau3getINS_8TypePackEEEPKT_PKNS_11TypePackVarE.exit.thread

_ZN4Luau3getINS_8TypePackEEEPKT_PKNS_11TypePackVarE.exit: ; preds = %38
  %41 = getelementptr inbounds nuw i8, ptr %37, i64 8
  %42 = add i64 %35, %accumulator.tr15
  %43 = getelementptr inbounds nuw i8, ptr %37, i64 16
  %44 = load ptr, ptr %43, align 8, !tbaa !85
  %45 = load ptr, ptr %41, align 8, !tbaa !81
  %46 = ptrtoint ptr %44 to i64
  %47 = ptrtoint ptr %45 to i64
  %48 = sub i64 %46, %47
  %49 = ashr exact i64 %48, 3
  %50 = getelementptr inbounds nuw i8, ptr %37, i64 32
  %51 = getelementptr inbounds nuw i8, ptr %37, i64 40
  %52 = load i8, ptr %51, align 8, !tbaa !72, !range !74, !noundef !75
  %53 = trunc nuw i8 %52 to i1
  br i1 %53, label %.lr.ph.split, label %_ZN4Luau3getINS_8TypePackEEEPKT_PKNS_11TypePackVarE.exit.thread

_ZN4Luau3getINS_8TypePackEEEPKT_PKNS_11TypePackVarE.exit.thread: ; preds = %_ZN4Luau3getINS_8TypePackEEEPKT_PKNS_11TypePackVarE.exit, %38, %.lr.ph.split, %_ZN4Luau3getINS_8TypePackEEEPKT_PKNS_11TypePackVarE.exit.us, %18, %.lr.ph.split.us, %2
  %accumulator.tr.lcssa = phi i64 [ 0, %2 ], [ %accumulator.tr15.us, %.lr.ph.split.us ], [ %accumulator.tr15.us, %18 ], [ %22, %_ZN4Luau3getINS_8TypePackEEEPKT_PKNS_11TypePackVarE.exit.us ], [ %accumulator.tr15, %.lr.ph.split ], [ %accumulator.tr15, %38 ], [ %42, %_ZN4Luau3getINS_8TypePackEEEPKT_PKNS_11TypePackVarE.exit ]
  %.lcssa = phi i64 [ %9, %2 ], [ %15, %.lr.ph.split.us ], [ %15, %18 ], [ %29, %_ZN4Luau3getINS_8TypePackEEEPKT_PKNS_11TypePackVarE.exit.us ], [ %35, %.lr.ph.split ], [ %35, %38 ], [ %49, %_ZN4Luau3getINS_8TypePackEEEPKT_PKNS_11TypePackVarE.exit ]
  %accumulator.ret.tr = add i64 %.lcssa, %accumulator.tr.lcssa
  ret i64 %accumulator.ret.tr
}